; Function Attrs: nounwind uwtable
define ptr @l_Std_Range_forIn_x27_loop___at_Lean_Meta_Hint_Suggestions_toHintMessage___spec__35(ptr readnone captures(none) %0, ptr readnone captures(none) %1, ptr noundef %2, ptr noundef %3, ptr noundef %4, ptr noundef readonly captures(none) %5, ptr noundef %6, ptr noundef %7, ptr readnone captures(none) %8, ptr readnone captures(none) %9) local_unnamed_addr #0 {
  %11 = getelementptr inbounds nuw i8, ptr %5, i64 16
  %12 = getelementptr inbounds nuw i8, ptr %5, i64 24
  br label %lean_dec.exit29

lean_dec.exit29:                                  ; preds = %lean_dec.exit29.backedge, %10
  %.025 = phi ptr [ %7, %10 ], [ %.025.be, %lean_dec.exit29.backedge ]
  %.023 = phi ptr [ %6, %10 ], [ %.023.be, %lean_dec.exit29.backedge ]
  %13 = load ptr, ptr %11, align 8, !tbaa !4
  %14 = ptrtoint ptr %.025 to i64
  %15 = and i64 %14, 1
  %.not = icmp eq i64 %15, 0
  br i1 %.not, label %lean_nat_lt.exit.thread49, label %16, !prof !15

16:                                               ; preds = %lean_dec.exit29
  %17 = ptrtoint ptr %13 to i64
  %18 = and i64 %17, 1
  %.not51 = icmp eq i64 %18, 0
  br i1 %.not51, label %lean_nat_lt.exit, label %lean_nat_lt.exit.thread, !prof !15

lean_nat_lt.exit:                                 ; preds = %16
  %19 = tail call zeroext i1 @lean_nat_big_lt(ptr noundef %.025, ptr noundef %13) #4
  br i1 %19, label %28, label %.thread

lean_nat_lt.exit.thread49:                        ; preds = %lean_dec.exit29
  %20 = tail call zeroext i1 @lean_nat_big_lt(ptr noundef %.025, ptr noundef %13) #4
  br i1 %20, label %28, label %21

lean_nat_lt.exit.thread:                          ; preds = %16
  %.not52 = icmp ult ptr %.025, %13
  br i1 %.not52, label %28, label %.thread

21:                                               ; preds = %lean_nat_lt.exit.thread49
  %22 = load i32, ptr %.025, align 4, !tbaa !8
  %23 = icmp sgt i32 %22, 1
  br i1 %23, label %24, label %26, !prof !11

24:                                               ; preds = %21
  %25 = add nsw i32 %22, -1
  store i32 %25, ptr %.025, align 4, !tbaa !8
  br label %.thread

26:                                               ; preds = %21
  %.not.i = icmp eq i32 %22, 0
  br i1 %.not.i, label %.thread, label %27

27:                                               ; preds = %26
  tail call void @lean_dec_ref_cold(ptr noundef nonnull %.025) #4
  br label %.thread

28:                                               ; preds = %lean_nat_lt.exit.thread49, %lean_nat_lt.exit.thread, %lean_nat_lt.exit
  %29 = tail call ptr @l_Subarray_get___rarg(ptr noundef %2, ptr noundef %.025) #4
  %30 = ptrtoint ptr %29 to i64
  %31 = lshr i64 %30, 1
  %32 = trunc i64 %31 to i32
  %33 = and i64 %30, 1
  %.not53 = icmp eq i64 %33, 0
  br i1 %.not53, label %34, label %lean_dec.exit28

34:                                               ; preds = %28
  %35 = load i32, ptr %29, align 4, !tbaa !8
  %36 = icmp sgt i32 %35, 1
  br i1 %36, label %37, label %39, !prof !11

37:                                               ; preds = %34
  %38 = add nsw i32 %35, -1
  store i32 %38, ptr %29, align 4, !tbaa !8
  br label %lean_dec.exit28

39:                                               ; preds = %34
  %.not.i30 = icmp eq i32 %35, 0
  br i1 %.not.i30, label %lean_dec.exit28, label %40

40:                                               ; preds = %39
  tail call void @lean_dec_ref_cold(ptr noundef nonnull %29) #4
  br label %lean_dec.exit28

lean_dec.exit28:                                  ; preds = %40, %39, %37, %28
  br i1 %.not, label %41, label %47

41:                                               ; preds = %lean_dec.exit28
  %.val.i = load i32, ptr %.025, align 4, !tbaa !8
  %42 = icmp sgt i32 %.val.i, 0
  br i1 %42, label %43, label %45, !prof !11

43:                                               ; preds = %41
  %44 = add nuw i32 %.val.i, 1
  store i32 %44, ptr %.025, align 4, !tbaa !8
  br label %64

45:                                               ; preds = %41
  %.not.i36 = icmp eq i32 %.val.i, 0
  br i1 %.not.i36, label %64, label %46

46:                                               ; preds = %45
  tail call void @lean_inc_ref_cold(ptr noundef nonnull %.025) #4
  br label %64

47:                                               ; preds = %lean_dec.exit28
  %48 = tail call ptr @l_Lean_Diff_Histogram_addRight___at_Lean_Meta_Hint_Suggestions_toHintMessage___spec__21(ptr noundef %3, ptr noundef %4, ptr noundef %.023, ptr noundef %.025, i32 noundef %32)
  %49 = load ptr, ptr %12, align 8, !tbaa !4
  %50 = ptrtoint ptr %49 to i64
  %51 = and i64 %50, 1
  %.not54 = icmp eq i64 %51, 0
  br i1 %.not54, label %lean_nat_add.exit.thread41, label %53, !prof !15

lean_nat_add.exit.thread41:                       ; preds = %47
  %52 = tail call ptr @lean_nat_big_add(ptr noundef %.025, ptr noundef %49) #4
  br label %lean_dec.exit29.backedge

53:                                               ; preds = %47
  %54 = lshr i64 %14, 1
  %55 = lshr i64 %50, 1
  %56 = add nuw i64 %55, %54
  %57 = icmp sgt i64 %56, -1
  br i1 %57, label %58, label %62, !prof !11

58:                                               ; preds = %53
  %59 = shl nuw i64 %56, 1
  %60 = or disjoint i64 %59, 1
  %61 = inttoptr i64 %60 to ptr
  br label %lean_dec.exit29.backedge

lean_dec.exit29.backedge:                         ; preds = %58, %62, %lean_nat_add.exit.thread41, %70, %72, %73
  %.025.be = phi ptr [ %52, %lean_nat_add.exit.thread41 ], [ %67, %70 ], [ %67, %72 ], [ %67, %73 ], [ %63, %62 ], [ %61, %58 ]
  %.023.be = phi ptr [ %48, %lean_nat_add.exit.thread41 ], [ %65, %70 ], [ %65, %72 ], [ %65, %73 ], [ %48, %62 ], [ %48, %58 ]
  br label %lean_dec.exit29

62:                                               ; preds = %53
  %63 = tail call ptr @lean_big_usize_to_nat(i64 noundef range(i64 0, -1) %56) #4
  br label %lean_dec.exit29.backedge

64:                                               ; preds = %43, %45, %46
  %65 = tail call ptr @l_Lean_Diff_Histogram_addRight___at_Lean_Meta_Hint_Suggestions_toHintMessage___spec__21(ptr noundef %3, ptr noundef %4, ptr noundef %.023, ptr noundef nonnull %.025, i32 noundef %32)
  %66 = load ptr, ptr %12, align 8, !tbaa !4
  %67 = tail call ptr @lean_nat_big_add(ptr noundef nonnull %.025, ptr noundef %66) #4
  %68 = load i32, ptr %.025, align 4, !tbaa !8
  %69 = icmp sgt i32 %68, 1
  br i1 %69, label %70, label %72, !prof !11

70:                                               ; preds = %64
  %71 = add nsw i32 %68, -1
  store i32 %71, ptr %.025, align 4, !tbaa !8
  br label %lean_dec.exit29.backedge

72:                                               ; preds = %64
  %.not.i32 = icmp eq i32 %68, 0
  br i1 %.not.i32, label %lean_dec.exit29.backedge, label %73

73:                                               ; preds = %72
  tail call void @lean_dec_ref_cold(ptr noundef nonnull %.025) #4
  br label %lean_dec.exit29.backedge

.thread:                                          ; preds = %lean_nat_lt.exit, %lean_nat_lt.exit.thread, %27, %26, %24
  ret ptr %.023
}